(lp0
(lp1
Vwish
p2
aVeveryone
p3
aVa
p4
aVhappy
p5
aVhealthy
p6
aVand
p7
aVprosperous
p8
aVnew
p9
aVyear
p10
aVwish
p11
aVeveryone
p12
aVa
p13
aVvery
p14
aVhappy
p15
aVholiday
p16
aVseason
p17
aVdo
p18
aVnot
p19
aVforget
p20
aVto
p21
aVwatch
p22
aVlarry
p23
aVking
p24
aVtonight
p25
aVcnn
p26
aVat
p27
aV9
p28
aVpm
p29
aV
p30
aVpron
p31
aVbe
p32
aVa
p33
aVtelevision
p34
aVlegend
p35
aVand
p36
aVa
p37
aVgreat
p38
aVfriend
p39
aVpron
p40
aVbe
p41
aVgo
p42
aVto
p43
aVbe
p44
aVa
p45
aVfantastic
p46
aVfarewell
p47
aVpron
p48
aVwill
p49
aVbe
p50
aVappear
p51
aVon
p52
aVlarry
p53
aVking
p54
aVlive
p55
aVfor
p56
aVpron
p57
aVfinal
p58
aVshow
p59
aVthursday
p60
aVnight
p61
aVat
p62
aV9
p63
aVp
p64
aVm
p65
aVcnn
p66
aVlarry
p67
aVbe
p68
aVbe
p69
aVon
p70
aVtv
p71
aVfor
p72
aV25
p73
aVyear
p74
aVtrump
p75
aVinternational
p76
aVhotel
p77
aVlas
p78
aVvegas
p79
aVand
p80
aVtrump
p81
aVinternational
p82
aVhotel
p83
aV
p84
aVtower
p85
aVwaikiki
p86
aVbeach
p87
aVwalk
p88
aV
p89
aVthose
p90
aVfive
p91
aVhotel
p92
aVincludetrump
p93
aVinternational
p94
aVhotel
p95
aV
p96
aVtower
p97
aVnew
p98
aVyork
p99
aVtrump
p100
aVsoho
p101
aVnew
p102
aVyork
p103
aVtrump
p104
aVinternational
p105
aVhotel
p106
aV
p107
aVtower
p108
aVchicago
p109
aVall
p110
aVthe
p111
aVhotel
p112
aVcurrently
p113
aVopen
p114
aVin
p115
aVthe
p116
aVtrump
p117
aVhotel
p118
aVcollection
p119
aVhave
p120
aVbe
p121
aVnominate
p122
aVfor
p123
aVtravel
p124
aV
p125
aVleisure
p126
aVs
p127
aVworld
p128
aVs
p129
aVgood
p130
aVawards
p131
aV2011
p132
aV
p133
aVcongratulation
p134
aVto
p135
aVbrandy
p136
aVas
p137
aVpron
p138
aVnew
p139
aVapprentice
p140
aVand
p141
aVto
p142
aVclint
p143
aVfor
p144
aVbe
p145
aVa
p146
aVgreat
p147
aVplayer
p148
aVpron
p149
aVbe
p150
aVbe
p151
aVa
p152
aVterrific
p153
aVseason
p154
aVtonight
p155
aVbe
p156
aVthe
p157
aVapprentice
p158
aVfinale
p159
aVand
p160
aVpron
p161
aVbe
p162
aVa
p163
aVfantastic
p164
aVepisode
p165
aVin
p166
aVevery
p167
aVway
p168
aVwith
p169
aVthe
p170
aVgreat
p171
aVliza
p172
aVminnelli
p173
aVperform
p174
aVand
p175
aVa
p176
aVnew
p177
aVapprentice
p178
aVtonight
p179
aVs
p180
aVepisode
p181
aVof
p182
aVthe
p183
aVapprentice
p184
aVbe
p185
aVone
p186
aVof
p187
aVthe
p188
aVgood
p189
aVever
p190
aVwe're
p191
aVdown
p192
aVto
p193
aVthe
p194
aVfinal
p195
aV3
p196
aVand
p197
aVpron
p198
aVbe
p199
aVhigh
p200
aVexcitement
p201
aVall
p202
aVthe
p203
aVway
p204
aV10
p205
aVpm
p206
aVon
p207
aVnbc
p208
aVcongratulation
p209
aVto
p210
aVevan
p211
aVlysacek
p212
aVfor
p213
aVbe
p214
aVnominate
p215
aVsi
p216
aVsportsman
p217
aVof
p218
aVthe
p219
aVyear
p220
aVpron
p221
aVbe
p222
aVa
p223
aVgreat
p224
aVguy
p225
aVand
p226
aVpron
p227
aVhave
p228
aVpron
p229
aVvote
p230
aV
p231
aV
p232
aVevanforsi
p233
aVpron
p234
aVgood
p235
aVwish
p236
aVto
p237
aVeveryone
p238
aVfor
p239
aVa
p240
aVhappy
p241
aVthanksgiving
p242
aVtomorrow
p243
aVnight
p244
aVs
p245
aVepisode
p246
aVof
p247
aVthe
p248
aVapprentice
p249
aVdeliver
p250
aVexcitement
p251
aVat
p252
aVqvc
p253
aValong
p254
aVwith
p255
aVappearance
p256
aVby
p257
aVisaac
p258
aVmizrahi
p259
aVand
p260
aVcathie
p261
aVblack
p262
aV10
p263
aVpm
p264
aVon
p265
aVnbc
p266
aVwatch
p267
aVcnn
p268
aVtomorrow
p269
aVat
p270
aV2
p271
aVpm
p272
aV
p273
aV5
p274
aVpm
p275
aVand
p276
aVon
p277
aVfriday
p278
aVat
p279
aV7
p280
aVpm
p281
aV
p282
aV11
p283
aVpm
p284
aVfor
p285
aVa
p286
aVthanksgiving
p287
aVspecial
p288
aVhost
p289
aVby
p290
aVjohn
p291
aVking
p292
aVpron
p293
aVwill
p294
aVbe
p295
aVa
p296
aVfeature
p297
aVguest
p298
aVstaff
p299
aVsgt
p300
aVsalvatore
p301
aVa
p302
aVgiunta
p303
aVreceive
p304
aVthe
p305
aVmedal
p306
aVof
p307
aVhonor
p308
aVfrom
p309
aVpres
p310
aVobama
p311
aVthis
p312
aVmonth
p313
aVpron
p314
aVbe
p315
aVa
p316
aVgreat
p317
aVhonor
p318
aVto
p319
aVhave
p320
aVpron
p321
aVvisit
p322
aVpron
p323
aVtoday
p324
aVcnbc
p325
aVtitans
p326
aVdonald
p327
aVtrump
p328
aVwill
p329
aVbe
p330
aVshow
p331
aVfriday
p332
aVnov
p333
aV19th
p334
aVat
p335
aV9
p336
aVpm
p337
aVand
p338
aV1
p339
aVam
p340
aVsunday
p341
aV11/21
p342
aVat
p343
aV9
p344
aVpm
p345
aVand
p346
aV11/24
p347
aVat
p348
aV7
p349
aVpm
p350
aV
p351
aVpron
p352
aVbe
p353
aVget
p354
aVdown
p355
aVto
p356
aVthe
p357
aVwire
p358
aVon
p359
aVthe
p360
aVapprentice
p361
aVtune
p362
aVin
p363
aVtonight
p364
aVfor
p365
aVsome
p366
aVgreat
p367
aVaction
p368
aV10
p369
aVp
p370
aVm
p371
aVon
p372
aVnbc
p373
aVpron
p374
aVinterview
p375
aVlast
p376
aVweek
p377
aVwith
p378
aVgreta
p379
aVvan
p380
aVsusteren
p381
aVbe
p382
aVavailable
p383
aVhere
p384
aVin
p385
aVslightly
p386
aVabridge
p387
aVform
p388
aV
p389
aVgood
p390
aVinfo
p391
aVto
p392
aVknow
p393
aVabout
p394
aVtonight
p395
aVs
p396
aVepisode
p397
aVof
p398
aVthe
p399
aVapprentice
p400
aVhave
p401
aVa
p402
aVbig
p403
aVsurprise
p404
aVat
p405
aVthe
p406
aVtop
p407
aVof
p408
aVthe
p409
aVshow
p410
aVdo
p411
aVnot
p412
aVmiss
p413
aVpron
p414
aV10
p415
aVp
p416
aVm
p417
aVon
p418
aVnbc
p419
aVtonight
p420
aVs
p421
aVepisode
p422
aVof
p423
aVthe
p424
aVapprentice
p425
aVbe
p426
aVone
p427
aVpron
p428
aVwill
p429
aVnot
p430
aVwant
p431
aVto
p432
aVmiss
p433
aVbe
p434
aVsure
p435
aVto
p436
aVtune
p437
aVin--10
p438
aVp
p439
aVm
p440
aVon
p441
aVnbc
p442
aVpron
p443
aVwill
p444
aVbe
p445
aVdiscuss
p446
aVa
p447
aVvariety
p448
aVof
p449
aVtopic
p450
aVtonight
p451
aVwith
p452
aVgreta
p453
aVvan
p454
aVsusteren
p455
aV10
p456
aVp
p457
aVm
p458
aVon
p459
aVfox
p460
aVnews
p461
aVpron
p462
aVwill
p463
aVbe
p464
aVthe
p465
aVfirst
p466
aVof
p467
aVa
p468
aVtwo
p469
aVpart
p470
aVseries
p471
aVpron
p472
aVbe
p473
aVon
p474
aVthe
p475
aVview
p476
aVthis
p477
aVmorning
p478
aVpron
p479
aVtalk
p480
aVabout
p481
aVthe
p482
aVapprentice
p483
aVtonight
p484
aVs
p485
aVepisode
p486
aVbe
p487
aVa
p488
aVgreat
p489
aVone
p490
aVtough
p491
aVexciting
p492
aVand
p493
aVsurprising
p494
aV10
p495
aVpm
p496
aV
p497
aVnbc
p498
aVbe
p499
aVprepared
p500
aVfor
p501
aVa
p502
aVsensational
p503
aVepisode
p504
aVof
p505
aVthe
p506
aVapprentice
p507
aVtomorrow
p508
aVnight
p509
aV10
p510
aVpm
p511
aVon
p512
aVnbc
p513
aVdo
p514
aVnot
p515
aVforget
p516
aVto
p517
aVtune
p518
aVin
p519
aVtonight
p520
aVto
p521
aVsee
p522
aVanother
p523
aVunpredictable
p524
aVand
p525
aVexciting
p526
aVepisode
p527
aVof
p528
aVthe
p529
aVapprentice
p530
aV10
p531
aVpm
p532
aVon
p533
aVnbc
p534
aVan
p535
aVhr
p536
aVsolution
p537
aVcompany
p538
aVpoll
p539
aV1,000
p540
aVemploy
p541
aVadult
p542
aVto
p543
aVfind
p544
aVout
p545
aVwho
p546
aVwould
p547
aVmake
p548
aVideal
p549
aVboss
p550
aV
p551
aVbe
p552
aVsure
p553
aVto
p554
aVwatch
p555
aVthe
p556
aVapprentice
p557
aVtonight
p558
aV10
p559
aVp
p560
aVm
p561
aVon
p562
aVnbc
p563
aVpron
p564
aVbe
p565
aVan
p566
aVepisode
p567
aVpron
p568
aVwill
p569
aVnot
p570
aVforget
p571
aVscotland
p572
aVbe
p573
aVbeautiful
p574
aVand
p575
aVtrump
p576
aVinternatonal
p577
aVgolf
p578
aVlinks
p579
aV
p580
aVscotland
p581
aVbe
p582
aVprogress
p583
aVbeautifully
p584
aVas
p585
aVwell
p586
aV
p587
aVdo
p588
aVnot
p589
aVforget
p590
aVto
p591
aVtune
p592
aVin
p593
aVtonight
p594
aVfor
p595
aVanother
p596
aVexciting
p597
aVepisode
p598
aVof
p599
aVthe
p600
aVapprentice--10
p601
aVp
p602
aVm
p603
aVon
p604
aVnbc
p605
aVpron
p606
aVbe
p607
aVhonor
p608
aVto
p609
aVbe
p610
aVpresent
p611
aVthe
p612
aVaward
p613
aVof
p614
aVdoctor
p615
aVof
p616
aVbusiness
p617
aVadministration
p618
aVhonoris
p619
aVcausa
p620
aVfrom
p621
aVrobert
p622
aVgordon
p623
aVuniversity
p624
aVin
p625
aVaberdeen
p626
aVscotland
p627
aVread
p628
aVivanka
p629
aVs
p630
aVblog
p631
aVabout
p632
aVlast
p633
aVnight
p634
aVs
p635
aVapprentice
p636
aVon
p637
aVentertainment
p638
aVweekly
p639
aVtune
p640
aVin
p641
aVtonight
p642
aVat
p643
aV10
p644
aVpm
p645
aVon
p646
aVnbc
p647
aVfor
p648
aVanother
p649
aVexciting
p650
aVepisode
p651
aVof
p652
aVthe
p653
aVapprentice
p654
aVand
p655
aVsee
p656
aVthe
p657
aVdog
p658
aVwhisperer
p659
aVmake
p660
aVan
p661
aVappearance
p662
aVsee
p663
aVthe
p664
aVnew
p665
aVsizzle
p666
aVreel
p667
aVfor
p668
aVthe
p669
aVapprentice
p670
aV
p671
aVdo
p672
aVnot
p673
aVforget
p674
aVto
p675
aVtune
p676
aVin
p677
aVtonight
p678
aVat
p679
aV10
p680
aVp
p681
aVm
p682
aVon
p683
aVnbc
p684
aVfor
p685
aVanother
p686
aVaction
p687
aVpack
p688
aVepisode
p689
aVof
p690
aVthe
p691
aVapprentice
p692
aV
p693
aVbe
p694
aVsure
p695
aVto
p696
aVtune
p697
aVin
p698
aVfor
p699
aVmelania
p700
aVs
p701
aVsecond
p702
aVqvc
p703
aVshow
p704
aVfor
p705
aVmelania
p706
aVtimepieces
p707
aV
p708
aVjewelry
p709
aVtonight
p710
aVlive
p711
aVfrom
p712
aV9
p713
aV
p714
aV10
p715
aVpm
p716
aVon
p717
aVqvc
p718
aVdo
p719
aVnot
p720
aVforget
p721
aVto
p722
aVtune
p723
aVin
p724
aVtonight
p725
aVfor
p726
aVthe
p727
aVtwo
p728
aVhour
p729
aVpremiere
p730
aVof
p731
aVthe
p732
aVapprentice
p733
aV9
p734
aVpm
p735
aVest
p736
aVon
p737
aVnbc
p738
aVpron
p739
aVbe
p740
aVall
p741
aVin
p742
aVfor
p743
aVa
p744
aVfantastic
p745
aVnew
p746
aVseason
p747
aVeric
p748
aVdo
p749
aVa
p750
aVgreat
p751
aVjob
p752
aVwith
p753
aVpron
p754
aVeric
p755
aVtrump
p756
aVfoundation
p757
aVannual
p758
aVcharity
p759
aVouting
p760
aVpron
p761
aVbe
p762
aVproud
p763
aVof
p764
aVpron
p765
aV
p766
aVpron
p767
aVbe
p768
aVvery
p769
aVhappy
p770
aVto
p771
aVhave
p772
aVthe
p773
aVcivilian
p774
aVversion
p775
aVof
p776
aVthe
p777
aVapprentice
p778
aVback
p779
aVon
p780
aVthe
p781
aVair
p782
aVthis
p783
aVfall
p784
aVthere
p785
aVwill
p786
aVbe
p787
aVexcitement
p788
aVas
p789
aVwell
p790
aVas
p791
aVopportunity
p792
aVcome
p793
aVup
p794
aVsoon
p795
aVthe
p796
aVtwo
p797
aVhour
p798
aVpremiere
p799
aVof
p800
aVthe
p801
aVapprentice
p802
aVnext
p803
aVthursday
p804
aVseptember
p805
aV16th
p806
aVat
p807
aV9
p808
aVpm
p809
aVon
p810
aVnbc
p811
aV
p812
aVthere
p813
aVbe
p814
aVa
p815
aVlot
p816
aVgo
p817
aVon
p818
aVat
p819
aVthe
p820
aVeric
p821
aVtrump
p822
aVfoundation
p823
aV
p824
aVpron
p825
aVbe
p826
aVinvite
p827
aVby
p828
aVcaroline
p829
aVwozniacki
p830
aVto
p831
aVsit
p832
aVwith
p833
aVpron
p834
aVfamily
p835
aVin
p836
aVpron
p837
aVspecial
p838
aVbox
p839
aVduring
p840
aVpron
p841
aVmatch
p842
aVat
p843
aVthe
p844
aVu
p845
aVs
p846
aVopen
p847
aVyesterday
p848
aVpron
p849
aVs
p850
aVfantastic
p851
aVcheck
p852
aVout
p853
aVtrump
p854
aVinternational
p855
aVhotel
p856
aV
p857
aVtower
p858
aVnew
p859
aVyork
p860
aVspectacular
p861
aV
p862
aVcheck
p863
aVout
p864
aVserta
p865
aVs
p866
aVcounting
p867
aVsheep
p868
aVand
p869
aVpron
p870
aVat
p871
aVthe
p872
aVtrump
p873
aVinternational
p874
aVhotel
p875
aVnew
p876
aVyork
p877
aVpron
p878
aVwill
p879
aVbe
p880
aVon
p881
aVthe
p882
aVlate
p883
aVshow
p884
aVwith
p885
aVdavid
p886
aVletterman
p887
aVtonight
p888
aVbe
p889
aVsure
p890
aVto
p891
aVtune
p892
aVin
p893
aVfor
p894
aVa
p895
aVgreat
p896
aVshow
p897
aV11:30
p898
aVpm
p899
aVon
p900
aVcbs
p901
aVgo
p902
aVto
p903
aVthe
p904
aVyankees
p905
aVgame
p906
aVlast
p907
aVnight
p908
aVwith
p909
aVbill
p910
aVo'reilly
p911
aVpron
p912
aVhave
p913
aVa
p914
aVgreat
p915
aVtime
p916
aVwatch
p917
aVthe
p918
aVyankees
p919
aVwin
p920
aVspend
p921
aVa
p922
aVbeautiful
p923
aVweekend
p924
aVgolfing
p925
aVat
p926
aVtrump
p927
aVnational
p928
aVgolf
p929
aVclub
p930
aVwestchester
p931
aVand
p932
aVtrump
p933
aVnational
p934
aVgolf
p935
aVclub
p936
aVbedminster
p937
aVthe
p938
aVmiss
p939
aVuniverse
p940
aVpageant
p941
aVrake
p942
aVin
p943
aVsome
p944
aVgreat
p945
aVrating
p946
aV
p947
aVa
p948
aVgreat
p949
aVjob
p950
aVby
p951
aVeveryone
p952
aVcongratulation
p953
aVto
p954
aVmiss
p955
aVmexico
p956
aVjimena
p957
aVnavarrete
p958
aVpron
p959
aVnew
p960
aVmiss
p961
aVuniverse
p962
aV2010
p963
aVand
p964
aVcongratulation
p965
aVto
p966
aVeveryone
p967
aVfor
p968
aVa
p969
aVfantastic
p970
aVshow
p971
aVpron
p972
aVbe
p973
aVgo
p974
aVto
p975
aVget
p976
aVhot
p977
aVin
p978
aVlas
p979
aVvegas
p980
aVtonight
p981
aVwatch
p982
aVthe
p983
aVmiss
p984
aVuniverse
p985
aVpageant
p986
aVtonight
p987
aVon
p988
aVnbc
p989
aVat
p990
aV9
p991
aVp
p992
aVm
p993
aVpron
p994
aVbe
p995
aVlook
p996
aVforward
p997
aVto
p998
aVbe
p999
aVthere
p1000
aVfour
p1001
aVmore
p1002
aVday
p1003
aVuntil
p1004
aVthe
p1005
aVmiss
p1006
aVuniverse
p1007
aVpageant
p1008
aVbe
p1009
aVsure
p1010
aVto
p1011
aVtune
p1012
aVin
p1013
aVon
p1014
aVmonday
p1015
aVnight
p1016
aVat
p1017
aV9
p1018
aVp
p1019
aVm
p1020
aVon
p1021
aVnbc
p1022
aVpron
p1023
aVwill
p1024
aVbe
p1025
aVan
p1026
aVamazing
p1027
aVshow
p1028
aVthe
p1029
aVoriginal
p1030
aVapprentice
p1031
aVreturn
p1032
aVwith
p1033
aVa
p1034
aVtwo
p1035
aVhour
p1036
aVpremiere
p1037
aVon
p1038
aVthursday
p1039
aVseptember
p1040
aV16th
p1041
aVlook
p1042
aVforward
p1043
aVto
p1044
aVa
p1045
aVfantastic
p1046
aVseason
p1047
aVso
p1048
aVdo
p1049
aVnot
p1050
aVforget
p1051
aVto
p1052
aVenter
p1053
aVthe
p1054
aVserta
p1055
aVcounting
p1056
aVsheep
p1057
aVfor
p1058
aVhire
p1059
aVcontest
p1060
aV
p1061
aVwww
p1062
aVyoutube
p1063
aVcom
p1064
aV
p1065
aVuser
p1066
aV
p1067
aVmattressserta
p1068
aVthat
p1069
aVtrip
p1070
aVwould
p1071
aVbe
p1072
aVto
p1073
aVthe
p1074
aVtrump
p1075
aVinternational
p1076
aVhotel
p1077
aVlas
p1078
aVvegas
p1079
aVfriday
p1080
aVbe
p1081
aVthe
p1082
aVlast
p1083
aVday
p1084
aVto
p1085
aVenter
p1086
aVthe
p1087
aVcounting
p1088
aVsheep
p1089
aVfor
p1090
aVhire
p1091
aVcontest
p1092
aVclick
p1093
aVhere
p1094
aVwww
p1095
aVyoutube
p1096
aVcom
p1097
aV
p1098
aVuser
p1099
aV
p1100
aVmattressserta
p1101
aVand
p1102
aVpron
p1103
aVcould
p1104
aVwin
p1105
aVa
p1106
aVtrip
p1107
aVcheck
p1108
aVout
p1109
aVthe
p1110
aVlast
p1111
aVwebisode
p1112
aVwww
p1113
aVyoutube
p1114
aVcom
p1115
aV
p1116
aVuser
p1117
aV
p1118
aVmattressserta
p1119
aVin
p1120
aVpron
p1121
aV3
p1122
aVpart
p1123
aVseries
p1124
aVfeature
p1125
aVpron
p1126
aVwith
p1127
aVserta
p1128
aVwhich
p1129
aVone
p1130
aVbe
p1131
aVpron
p1132
aVfavorite
p1133
aVcheck
p1134
aVout
p1135
aVthe
p1136
aVlast
p1137
aVwebisode
p1138
aVin
p1139
aVpron
p1140
aV3
p1141
aVpart
p1142
aVseries
p1143
aVfeature
p1144
aVpron
p1145
aVwith
p1146
aVserta
p1147
aVwhich
p1148
aVone
p1149
aVbe
p1150
aVpron
p1151
aVfavorite
p1152
aV
p1153
aVwww
p1154
aVyoutube
p1155
aVcom
p1156
aV
p1157
aVuser
p1158
aV
p1159
aVmattressserta
p1160
aVeric
p1161
aVs
p1162
aVseptember
p1163
aV14th
p1164
aVevent
p1165
aVwill
p1166
aVbe
p1167
aVhold
p1168
aVat
p1169
aVtrump
p1170
aVnational
p1171
aVgolf
p1172
aVclub
p1173
aVwestchester
p1174
aV
p1175
aVthe
p1176
aVeric
p1177
aVtrump
p1178
aVfoundation
p1179
aVseptember
p1180
aV14
p1181
aV
p1182
aVmark
p1183
aVpron
p1184
aVcalender
p1185
aVfor
p1186
aVaugust
p1187
aV23rd
p1188
aV
p1189
aVperform
p1190
aVlive
p1191
aVon
p1192
aVthe
p1193
aVmiss
p1194
aVuniverse
p1195
aVpageant
p1196
aVfrom
p1197
aVthe
p1198
aVmandalay
p1199
aVbay
p1200
aVresort
p1201
aV
p1202
aVcasino
p1203
aVwill
p1204
aVbe
p1205
aVtelemundo
p1206
aVorianthi
p1207
aVjohn
p1208
aVlegend
p1209
aVand
p1210
aVthe
p1211
aVroot
p1212
aVthe
p1213
aVmiss
p1214
aVuniverse
p1215
aVpageant
p1216
aVwill
p1217
aVbe
p1218
aVon
p1219
aVaugust
p1220
aV23
p1221
aV9
p1222
aV
p1223
aV11
p1224
aVp
p1225
aVm
p1226
aVon
p1227
aVnbc
p1228
aVet
p1229
aVwith
p1230
aVbret
p1231
aVmichaels
p1232
aVand
p1233
aVnatalie
p1234
aVmorales
p1235
aVto
p1236
aVco
p1237
aVhost
p1238
aVlive
p1239
aVfrom
p1240
aVlas
p1241
aVvegas
p1242
aVenter
p1243
aVthe
p1244
aVcontest
p1245
aV
p1246
aVstay
p1247
aVat
p1248
aVtrump
p1249
aVinternational
p1250
aVhotel
p1251
aVlas
p1252
aVvegas
p1253
aVand
p1254
aVstay
p1255
aVat
p1256
aVthe
p1257
aVfantastic
p1258
aVtrump
p1259
aVinternational
p1260
aVhotel
p1261
aVlas
p1262
aVvegas
p1263
aVpron
p1264
aVbe
p1265
aVhelp
p1266
aVthe
p1267
aVserta
p1268
aVcounting
p1269
aVsheep
p1270
aVget
p1271
aVback
p1272
aVto
p1273
aVwork
p1274
aVenter
p1275
aVthe
p1276
aVcontest
p1277
aV
p1278
aVand
p1279
aVwin
p1280
aVa
p1281
aVtrip
p1282
aVto
p1283
aVlas
p1284
aVvegas
p1285
aVcould
p1286
aVthis
p1287
aVbe
p1288
aVpron
p1289
aVnew
p1290
aVapprentice
p1291
aV
p1292
aV
p1293
aVenter
p1294
aVthe
p1295
aVcontest
p1296
aVpron
p1297
aVbe
p1298
aVproud
p1299
aVto
p1300
aVaccept
p1301
aVthe
p1302
aV2010
p1303
aVhollyrod
p1304
aVfoundation
p1305
aVhumanitarian
p1306
aVaward
p1307
aVfrom
p1308
aVholly
p1309
aVrobinson
p1310
aVpeete
p1311
aVwho
p1312
aVraise
p1313
aV700,000
p1314
aVon
p1315
aVcelebrity
p1316
aVapprentice
p1317
aVand
p1318
aVyet
p1319
aVanother
p1320
aVall
p1321
aVof
p1322
aVpron
p1323
aVbe
p1324
aVspectacular
p1325
aV
p1326
aVand
p1327
aVhere
p1328
aVbe
p1329
aVanother
p1330
aV
p1331
aVvisit
p1332
aVsome
p1333
aVvery
p1334
aVbeautiful
p1335
aVgolf
p1336
aVcourse
p1337
aVthis
p1338
aVweekend
p1339
aVthis
p1340
aVbe
p1341
aVone
p1342
aVgeorge
p1343
aVsteinbrenner
p1344
aVbe
p1345
aVa
p1346
aVgreat
p1347
aVfriend
p1348
aVand
p1349
aVa
p1350
aVtrue
p1351
aVlegend
p1352
aVthere
p1353
aVwill
p1354
aVnever
p1355
aVbe
p1356
aVanyone
p1357
aVlike
p1358
aVpron
p1359
aVin
p1360
aVnew
p1361
aVyork
p1362
aVpron
p1363
aVhave
p1364
aVlose
p1365
aVa
p1366
aVtruly
p1367
aVgreat
p1368
aVman
p1369
aVthe
p1370
aVnew
p1371
aVedition
p1372
aVof
p1373
aVthe
p1374
aVapprentice
p1375
aVwill
p1376
aVbe
p1377
aVon
p1378
aVthursdays
p1379
aVthis
p1380
aVfall
p1381
aVat
p1382
aV10
p1383
aVpm
p1384
aVet
p1385
aVi'm
p1386
aVput
p1387
aVpeople
p1388
aVback
p1389
aVto
p1390
aVwork
p1391
aVdue
p1392
aVto
p1393
aVpopular
p1394
aVdemand
p1395
aVcnn
p1396
aVwill
p1397
aVre
p1398
aV
p1399
aVbroadcast
p1400
aVthe
p1401
aVlarry
p1402
aVking
p1403
aVlive
p1404
aVshow
p1405
aVpron
p1406
aVhost
p1407
aVin
p1408
aVjune
p1409
aVin
p1410
aVwhich
p1411
aVpron
p1412
aVinterview
p1413
aVlarry
p1414
aVmonday
p1415
aVjuly
p1416
aV5
p1417
aV9
p1418
aVpm
p1419
aVcnn
p1420
aVwish
p1421
aVeveryone
p1422
aVa
p1423
aVwonderful
p1424
aVindependence
p1425
aVday
p1426
aVweekend
p1427
aVpron
p1428
aVhave
p1429
aVa
p1430
aVlot
p1431
aVto
p1432
aVbe
p1433
aVthankful
p1434
aVfor
p1435
aV
p1436
aVwork
p1437
aVbe
p1438
aVexpect
p1439
aVto
p1440
aVbegin
p1441
aVtoday
p1442
aVon
p1443
aVpron
p1444
aVgolf
p1445
aVcourse
p1446
aVin
p1447
aVscotland
p1448
aVpron
p1449
aVwill
p1450
aVbe
p1451
aVspectacular
p1452
aV
p1453
aVtrade
p1454
aVshot
p1455
aVwith
p1456
aVdonald
p1457
aVtrump
p1458
aVa
p1459
aVgreat
p1460
aVarticle
p1461
aVin
p1462
aVthe
p1463
aVwall
p1464
aVstreet
p1465
aVjournal
p1466
aVthe
p1467
aVeric
p1468
aVtrump
p1469
aVfoundation
p1470
aVhave
p1471
aVraise
p1472
aVover
p1473
aV1,000,000
p1474
aVtowards
p1475
aVst
p1476
aVjude
p1477
aVchildren
p1478
aVs
p1479
aVresearch
p1480
aVhospital
p1481
aV
p1482
aVgreat
p1483
aVjob
p1484
aVon
p1485
aVthe
p1486
aVlarry
p1487
aVking
p1488
aVlive
p1489
aVgulf
p1490
aVtelethon
p1491
aVlast
p1492
aVnight--$1
p1493
aV3
p1494
aVmillion
p1495
aVbe
p1496
aVraise
p1497
aVin
p1498
aV2
p1499
aVhour
p1500
aVfor
p1501
aVmore
p1502
aVinformation
p1503
aVon
p1504
aVtonight
p1505
aVs
p1506
aVtwo
p1507
aVhour
p1508
aVtelethon
p1509
aV8
p1510
aVto
p1511
aV10
p1512
aVp
p1513
aVm
p1514
aV
p1515
aVtonight
p1516
aVbe
p1517
aVsure
p1518
aVto
p1519
aVwatch
p1520
aVmelania
p1521
aVand
p1522
aVivanka
p1523
aVon
p1524
aVlarry
p1525
aVking
p1526
aVlive
p1527
aVfor
p1528
aVa
p1529
aVcelebrity
p1530
aVrelief
p1531
aVtelethon
p1532
aV
p1533
aVthe
p1534
aVultimate
p1535
aVmerger
p1536
aV
p1537
aVtune
p1538
aVin
p1539
aVtonight
p1540
aVat
p1541
aV9
p1542
aVpm
p1543
aVon
p1544
aVtv
p1545
aVone
p1546
aVfor
p1547
aVthe
p1548
aVultimate
p1549
aVmerger
p1550
aVstar
p1551
aVthe
p1552
aVone
p1553
aVand
p1554
aVonly
p1555
aVomarosa
p1556
aVand
p1557
aVtwelve
p1558
aVbrave
p1559
aVbachelor
p1560
aVand
p1561
aVtrump
p1562
aVsoho
p1563
aVnew
p1564
aVyork
p1565
aVbe
p1566
aVone
p1567
aVof
p1568
aVthe
p1569
aVhot
p1570
aVnew
p1571
aVhotel
p1572
aVanywhere
p1573
aV
p1574
aV
p1575
aVhave
p1576
aVa
p1577
aVfantastic
p1578
aVdinner
p1579
aVlast
p1580
aVnight
p1581
aVat
p1582
aVquattro
p1583
aVin
p1584
aVthe
p1585
aVtrump
p1586
aVsoho
p1587
aVhotel
p1588
aVpron
p1589
aVbe
p1590
aValready
p1591
aVone
p1592
aVof
p1593
aVthe
p1594
aVhot
p1595
aVnew
p1596
aVrestaurant
p1597
aVin
p1598
aVthe
p1599
aVcity
p1600
aVwsj
p1601
aVcover
p1602
aVride
p1603
aVof
p1604
aVfame
p1605
aVrima
p1606
aVfakih
p1607
aVpron
p1608
aVbeautiful
p1609
aVmiss
p1610
aVusa
p1611
aVride
p1612
aVwith
p1613
aVpron
p1614
aVon
p1615
aVthe
p1616
aVgray
p1617
aVline
p1618
aVride
p1619
aVof
p1620
aVfame
p1621
aVyesterday
p1622
aV
p1623
aV
p1624
aVcheck
p1625
aVout
p1626
aVgray
p1627
aVline
p1628
aVs
p1629
aVsite
p1630
aVfor
p1631
aVthe
p1632
aVdonald
p1633
aVtrump
p1634
aVride
p1635
aVof
p1636
aVfame
p1637
aV
p1638
aVpron
p1639
aVbe
p1640
aVhonor
p1641
aVto
p1642
aVbe
p1643
aVchoose
p1644
aVby
p1645
aVgray
p1646
aVline
p1647
aVfor
p1648
aVpron
p1649
aVny
p1650
aVride
p1651
aVof
p1652
aVfame
p1653
aVcampaign
p1654
aVtoday
p1655
aVpron
p1656
aVhave
p1657
aVthe
p1658
aVribbon
p1659
aVcut
p1660
aVceremony
p1661
aVin
p1662
aVfront
p1663
aVof
p1664
aVtrump
p1665
aVtower
p1666
aVtonight
p1667
aVpron
p1668
aVtrade
p1669
aVplace
p1670
aVwith
p1671
aVlarry
p1672
aVking
p1673
aVkingsthing
p1674
aVand
p1675
aVinterview
p1676
aVpron
p1677
aVon
p1678
aVthe
p1679
aV25th
p1680
aVanniversary
p1681
aVof
p1682
aVpron
p1683
aVshow
p1684
aV9pm
p1685
aVon
p1686
aVcnn
p1687
aVfeature
p1688
aVgood
p1689
aVclip
p1690
aVbe
p1691
aVsure
p1692
aVto
p1693
aVwatch
p1694
aVthe
p1695
aVlarry
p1696
aVking
p1697
aVshow
p1698
aVtomorrow
p1699
aVnight
p1700
aVon
p1701
aVcnn
p1702
aV9
p1703
aVp
p1704
aVm
p1705
aVpron
p1706
aVwill
p1707
aVbe
p1708
aVthe
p1709
aVhost
p1710
aVlarry
p1711
aVthe
p1712
aVguest
p1713
aV
p1714
aVcheck
p1715
aVout
p1716
aVthe
p1717
aVcourse
p1718
aVat
p1719
aVtngc
p1720
aVwestchester
p1721
aVand
p1722
aVpron
p1723
aVbe
p1724
aVfantastic
p1725
aVshould
p1726
aVbe
p1727
aVa
p1728
aVgreat
p1729
aVseason
p1730
aV
p1731
aVpron
p1732
aVwill
p1733
aVbe
p1734
aVturn
p1735
aVthe
p1736
aVtable
p1737
aVon
p1738
aVlarry
p1739
aVking
p1740
aVthis
p1741
aVsaturday
p1742
aVnight
p1743
aV
p1744
aVpron
p1745
aVwill
p1746
aVbe
p1747
aVinterview
p1748
aVpron
p1749
aVin
p1750
aVhonor
p1751
aVof
p1752
aVthe
p1753
aV25th
p1754
aVanniversary
p1755
aVof
p1756
aVpron
p1757
aVshow
p1758
aVwish
p1759
aVeveryone
p1760
aVa
p1761
aVhappy
p1762
aVmemorial
p1763
aVday
p1764
aVweekend
p1765
aVwith
p1766
aVa
p1767
aVspecial
p1768
aVthought
p1769
aVfor
p1770
aVall
p1771
aVthe
p1772
aVveteran
p1773
aVwho
p1774
aVhave
p1775
aVdo
p1776
aVso
p1777
aVmuch
p1778
aVfor
p1779
aVpron
p1780
aVfreedom
p1781
aVthe
p1782
aVdunes
p1783
aVhere
p1784
aVbe
p1785
aVamazing
p1786
aVand
p1787
aVpron
p1788
aVbe
p1789
aVhow
p1790
aVpron
p1791
aVlearn
p1792
aVabout
p1793
aVgeomorphology
p1794
aVwhich
p1795
aVbe
p1796
aVthe
p1797
aVstudy
p1798
aVof
p1799
aVmovement
p1800
aVlandform
p1801
aVpron
p1802
aVhave
p1803
aVhave
p1804
aVa
p1805
aVgreat
p1806
aVtrip
p1807
aVthe
p1808
aVnorth
p1809
aVcoast
p1810
aVof
p1811
aVscotland
p1812
aVbe
p1813
aVspectacular
p1814
aVthe
p1815
aVsea
p1816
aVthe
p1817
aVsand
p1818
aVdune
p1819
aVthe
p1820
aVrolling
p1821
aVbluff
p1822
aVpron
p1823
aVwalk
p1824
aVthe
p1825
aVcourse
p1826
aVand
p1827
aVpron
p1828
aVbe
p1829
aVfantastic
p1830
aVscotland
p1831
aVbe
p1832
aVbeautiful
p1833
aVpron
p1834
aVspend
p1835
aVseveral
p1836
aVyear
p1837
aVlook
p1838
aVfor
p1839
aVthe
p1840
aVright
p1841
aVplace
p1842
aVvisit
p1843
aVover
p1844
aV200
p1845
aVsite
p1846
aVand
p1847
aVthis
p1848
aVbe
p1849
aVabsolutely
p1850
aVthe
p1851
aVright
p1852
aVthe
p1853
aVrating
p1854
aVfor
p1855
aVthe
p1856
aVcelebrity
p1857
aVapprentice
p1858
aVbe
p1859
aVfantastic
p1860
aVand
p1861
aVeveryone
p1862
aVhave
p1863
aVa
p1864
aVgreat
p1865
aVtime
p1866
aVpron
p1867
aVbe
p1868
aVa
p1869
aVterrific
p1870
aVseason
p1871
aVcongrat
p1872
aVto
p1873
aVeveryone
p1874
aVivanka
p1875
aVcatch
p1876
aVup
p1877
aVwith
p1878
aVbret
p1879
aVand
p1880
aVholly
p1881
aVbackstage
p1882
aVboth
p1883
aVbret
p1884
aVand
p1885
aVholly
p1886
aVbe
p1887
aVchampion
p1888
aVall
p1889
aVthe
p1890
aVway
p1891
aV
p1892
aVcongratulation
p1893
aVto
p1894
aVbret
p1895
aVmichaels
p1896
aVthe
p1897
aVnew
p1898
aVcelebrity
p1899
aVapprentice
p1900
aVbret
p1901
aVs
p1902
aVa
p1903
aVtrue
p1904
aVchampion
p1905
aVall
p1906
aVof
p1907
aVpron
p1908
aVbe
p1909
aVhappy
p1910
aVto
p1911
aVsee
p1912
aVpron
p1913
aVand
p1914
aVto
p1915
aVsee
p1916
aVpron
p1917
aVwin
p1918
aVwho
p1919
aVbe
p1920
aVpron
p1921
aVpick--@bretmichael
p1922
aVor
p1923
aVhollyrpeete
p1924
aVvote
p1925
aVnow
p1926
aVon
p1927
aVivanka
p1928
aVs
p1929
aVnew
p1930
aVfacebook
p1931
aVpage
p1932
aV
p1933
aVthe
p1934
aVlate
p1935
aVupdate
p1936
aVon
p1937
aVbret
p1938
aVmichaels
p1939
aVbe
p1940
aVthat
p1941
aVpron
p1942
aVbe
p1943
aVmake
p1944
aVevery
p1945
aVeffort
p1946
aVto
p1947
aVattend
p1948
aVthe
p1949
aVlive
p1950
aVfinale
p1951
aVof
p1952
aVcelebrity
p1953
aVapprentice
p1954
aVon
p1955
aVsunday
p1956
aVso
p1957
aVtune
p1958
aVin
p1959
aVcheck
p1960
aVout
p1961
aVivanka
p1962
aVs
p1963
aVnew
p1964
aVfacebook
p1965
aVpage
p1966
aVand
p1967
aVkeep
p1968
aVup
p1969
aVwith
p1970
aVwhat
p1971
aVbe
p1972
aVhappen
p1973
aVfrom
p1974
aVthe
p1975
aVcelebrity
p1976
aVapprentice
p1977
aVto
p1978
aVjewlery
p1979
aVto
p1980
aVfree
p1981
aVticket
p1982
aVand
p1983
aVmore
p1984
aVput
p1985
aVthis
p1986
aVon
p1987
aVpron
p1988
aVcalendar
p1989
aVthe
p1990
aVcelebrity
p1991
aVapprentice
p1992
aVlive
p1993
aVfinale
p1994
aVbe
p1995
aVthis
p1996
aVsunday
p1997
aVat
p1998
aV9
p1999
aVp
p2000
aVm
p2001
aVon
p2002
aVnbc
p2003
aVwho
p2004
aVwill
p2005
aVbe
p2006
aVthe
p2007
aVnext
p2008
aVcelebrity
p2009
aVapprentice
p2010
aVcongratulation
p2011
aVto
p2012
aVpron
p2013
aVnew
p2014
aVmiss
p2015
aVusa
p2016
aVthe
p2017
aVbeautiful
p2018
aVrima
p2019
aVfakih
p2020
aV
p2021
aVrima
p2022
aVwill
p2023
aVrepresent
p2024
aVpron
p2025
aVwell
p2026
aVat
p2027
aVmiss
p2028
aVuniverse
p2029
aVand
p2030
aVbe
p2031
aVa
p2032
aVwonderful
p2033
aVmiss
p2034
aVusa
p2035
aVlook
p2036
aVforward
p2037
aVto
p2038
aVthe
p2039
aV2010
p2040
aVmiss
p2041
aVusa
p2042
aVpageant
p2043
aVsunday
p2044
aVmay
p2045
aV16
p2046
aVon
p2047
aVnbc
p2048
aV7
p2049
aVp
p2050
aVm
p2051
aVet
p2052
aVhost
p2053
aVby
p2054
aVcurtis
p2055
aVstone
p2056
aV
p2057
aVnatalie
p2058
aVmorales
p2059
aVlive
p2060
aVfrom
p2061
aVlas
p2062
aVvegas
p2063
aVpron
p2064
aVbe
p2065
aVall
p2066
aVvery
p2067
aVhappy
p2068
aVto
p2069
aVhear
p2070
aVof
p2071
aVbret
p2072
aVmichael
p2073
aVs
p2074
aVprogress
p2075
aVand
p2076
aVsend
p2077
aVpron
p2078
aVgood
p2079
aVwish
p2080
aVfor
p2081
aVpron
p2082
aVfull
p2083
aVrecovery
p2084
aVprovide
p2085
aVbackstage
p2086
aVcommentary
p2087
aVat
p2088
aVthe
p2089
aVmiss
p2090
aVusa
p2091
aVpageant
p2092
aVwill
p2093
aVbe
p2094
aVcomedic
p2095
aVmother
p2096
aV
p2097
aVdaughter
p2098
aVduo
p2099
aVjoan
p2100
aVand
p2101
aVmelissa
p2102
aVrivers
p2103
aVa
p2104
aVfantastic
p2105
aVlineup
p2106
aValso
p2107
aVappear
p2108
aVon
p2109
aVthe
p2110
aVmiss
p2111
aVusa
p2112
aVpageant
p2113
aVwill
p2114
aVbe
p2115
aVcountry
p2116
aVsuperstar
p2117
aVtrace
p2118
aVadkins
p2119
aVand
p2120
aVpop
p2121
aVrock
p2122
aVsensation
p2123
aVboys
p2124
aVlike
p2125
aVgirl
p2126
aVlook
p2127
aVforward
p2128
aVto
p2129
aVthe
p2130
aV2010
p2131
aVmiss
p2132
aVusa
p2133
aVpageant
p2134
aVsunday
p2135
aVmay
p2136
aV16
p2137
aVon
p2138
aVnbc
p2139
aV7
p2140
aVp
p2141
aVm
p2142
aVet
p2143
aVhost
p2144
aVby
p2145
aVcurtis
p2146
aVstone
p2147
aVand
p2148
aVnatalie
p2149
aVmorales
p2150
aVbe
p2151
aVsure
p2152
aVto
p2153
aVlook
p2154
aVfor
p2155
aVpron
p2156
aVbeautiful
p2157
aVwife
p2158
aVmelania
p2159
aVtrump
p2160
aVtonight
p2161
aVon
p2162
aVqvc
p2163
aVat
p2164
aV9
p2165
aVpm
p2166
aVet
p2167
aVwhere
p2168
aVpron
p2169
aVwill
p2170
aVbe
p2171
aVdebut
p2172
aVpron
p2173
aVfantastic
p2174
aVjewelry
p2175
aVcollection
p2176
aVmelania
p2177
aVwill
p2178
aVbe
p2179
aVon
p2180
aVqvc
p2181
aVtomorrow
p2182
aVnight
p2183
aVat
p2184
aV9
p2185
aVp
p2186
aVm
p2187
aVet
p2188
aVto
p2189
aVintroduce
p2190
aVpron
p2191
aVbeautiful
p2192
aVand
p2193
aVinspire
p2194
aVmelania
p2195
aVtimepieces
p2196
aV
p2197
aVfashion
p2198
aVjewelry
p2199
aVcollection
p2200
aVmelania
p2201
aVand
p2202
aVpron
p2203
aVwill
p2204
aVbe
p2205
aVappear
p2206
aVon
p2207
aVlarry
p2208
aVking
p2209
aVlive
p2210
aVtonight
p2211
aV9
p2212
aVp
p2213
aVm
p2214
aVon
p2215
aVcnn
p2216
aVbe
p2217
aVsure
p2218
aVto
p2219
aVtune
p2220
aVin
p2221
aVfor
p2222
aVsome
p2223
aVgreat
p2224
aVconversation
p2225
aVpron
p2226
aVthought
p2227
aVand
p2228
aVprayer
p2229
aVremain
p2230
aVwith
p2231
aVbret
p2232
aVmichaels
p2233
aVand
p2234
aVpron
p2235
aVfamily
p2236
aVand
p2237
aVfor
p2238
aVpron
p2239
aVspeedy
p2240
aVrecovery
p2241
aVto
p2242
aVput
p2243
aVon
p2244
aVpron
p2245
aVcalendar
p2246
aVfor
p2247
aVmay
p2248
aVmiss
p2249
aVusa
p2250
aV2010
p2251
aVlive
p2252
aVfrom
p2253
aVlas
p2254
aVvegas
p2255
aVon
p2256
aVmay
p2257
aV16th
p2258
aV7
p2259
aVp
p2260
aVm
p2261
aVet
p2262
aVon
p2263
aVnbc
p2264
aVpron
p2265
aVwill
p2266
aVbe
p2267
aVthere
p2268
aVtune
p2269
aVin
p2270
aVfor
p2271
aVa
p2272
aVgreat
p2273
aVshow
p2274
aVmelania
p2275
aVand
p2276
aVpron
p2277
aVwill
p2278
aVbe
p2279
aVappear
p2280
aVon
p2281
aVthe
p2282
aVview
p2283
aVtomorrow
p2284
aVat
p2285
aV11
p2286
aVa
p2287
aVm
p2288
aVon
p2289
aVcbs
p2290
aVtune
p2291
aVin
p2292
aVfor
p2293
aVsome
p2294
aVgreat
p2295
aVfun
p2296
aVmelania
p2297
aVand
p2298
aVpron
p2299
aVsee
p2300
aVamerican
p2301
aVidiot
p2302
aVon
p2303
aVbroadway
p2304
aVlast
p2305
aVnight
p2306
aVand
p2307
aVpron
p2308
aVbe
p2309
aVgreat
p2310
aVan
p2311
aVamazing
p2312
aVtheatrical
p2313
aVexperience
p2314
aVtune
p2315
aVin
p2316
aVto
p2317
aVthe
p2318
aVmarriage
p2319
aVref
p2320
aVonthursday
p2321
aVnight
p2322
aVat
p2323
aV10
p2324
aVp
p2325
aVm
p2326
aVon
p2327
aVnbc
p2328
aVi'm
p2329
aVon
p2330
aVthe
p2331
aVpanel
p2332
aVof
p2333
aVexpert
p2334
aValong
p2335
aVwith
p2336
aVgloria
p2337
aVestefan
p2338
aV
p2339
aVadam
p2340
aVcarolla
p2341
aV
p2342
aVon
p2343
aVsunday
p2344
aVjerome
p2345
aVbettis
p2346
aV
p2347
aVthe
p2348
aVbus
p2349
aVfrom
p2350
aVthe
p2351
aVpittsburgh
p2352
aVsteelers
p2353
aVwill
p2354
aVplay
p2355
aVat
p2356
aVtrump
p2357
aVint'l
p2358
aVgolf
p2359
aVclub
p2360
aV
p2361
aVpalm
p2362
aVbeach
p2363
aVagainst
p2364
aVjulius
p2365
aVerving
p2366
aVdr
p2367
aVj
p2368
aVbefore
p2369
aVkids
p2370
aVcan
p2371
aVgo
p2372
aVplaces
p2373
aVpron
p2374
aVneed
p2375
aVa
p2376
aVplace
p2377
aVto
p2378
aVgo
p2379
aVthe
p2380
aVmotto
p2381
aVof
p2382
aVthe
p2383
aVpolice
p2384
aVathletic
p2385
aVleague
p2386
aVan
p2387
aVorganization
p2388
aVpron
p2389
aVbe
p2390
aVvery
p2391
aVproud
p2392
aVto
p2393
aVsupport
p2394
aVlook
p2395
aVforward
p2396
aVto
p2397
aVsee
p2398
aVthe
p2399
aVworld
p2400
aVchampion
p2401
aVyankees
p2402
aVtoday
p2403
aVon
p2404
aVopening
p2405
aVday
p2406
aVthe
p2407
aVpremiere
p2408
aVof
p2409
aVdonald
p2410
aVj
p2411
aVtrump
p2412
aVs
p2413
aVfabulous
p2414
aVworld
p2415
aVof
p2416
aVgolf
p2417
aVbe
p2418
aVtomorrow
p2419
aVnight
p2420
aVat
p2421
aV9
p2422
aVp
p2423
aVm
p2424
aVet
p2425
aVon
p2426
aVgolf
p2427
aVchannel
p2428
aVtune
p2429
aVin
p2430
aVfor
p2431
aVa
p2432
aVgreat
p2433
aVadventure
p2434
aVthis
p2435
aVbe
p2436
aVa
p2437
aVterrific
p2438
aVday
p2439
aVfor
p2440
aVdowntown
p2441
aVnew
p2442
aVyork
p2443
aVtrump
p2444
aVsoho
p2445
aVbe
p2446
aVunlike
p2447
aVanything
p2448
aVelse
p2449
aVbe
p2450
aVsure
p2451
aVto
p2452
aVvisit
p2453
aVthis
p2454
aVfantastic
p2455
aVhotel
p2456
aVsoon
p2457
aVtrump
p2458
aVsoho
p2459
aVopen
p2460
aVthis
p2461
aVfriday
p2462
aVand
p2463
aVpron
p2464
aVbe
p2465
aVfantastic
p2466
aVcheck
p2467
aVout
p2468
aVthe
p2469
aVtrump
p2470
aVhotel
p2471
aVcollection
p2472
aVpron
p2473
aVbestselling
p2474
aVbook
p2475
aVfrom
p2476
aVlast
p2477
aVapril
p2478
aVthink
p2479
aVlike
p2480
aVa
p2481
aVchampion
p2482
aVbe
p2483
aVnow
p2484
aVavailable
p2485
aVin
p2486
aVpaperback
p2487
aVpron
p2488
aVbe
p2489
aVinspiring
p2490
aVentertaining
p2491
aVand
p2492
aVa
p2493
aVgreat
p2494
aVread
p2495
aVthen
p2496
aVpron
p2497
aVattend
p2498
aVthe
p2499
aVscottish
p2500
aVfashion
p2501
aVshow
p2502
aVthat
p2503
aVbenefit
p2504
aVveteran
p2505
aVdress
p2506
aVto
p2507
aVkilt
p2508
aV2010
p2509
aVwhich
p2510
aVpron
p2511
aVco
p2512
aVhost
p2513
aVwith
p2514
aVsir
p2515
aVsean
p2516
aVand
p2517
aVlady
p2518
aVconnery
p2519
aVlast
p2520
aVnight
p2521
aVmelania
p2522
aVand
p2523
aVpron
p2524
aVattend
p2525
aVthe
p2526
aVskating
p2527
aVwith
p2528
aVthe
p2529
aVstars
p2530
aVgala
p2531
aVat
p2532
aVwollman
p2533
aVrink
p2534
aVin
p2535
aVcentral
p2536
aVpark
p2537
aVpron
p2538
aVbe
p2539
aVfantastic
p2540
aVstay
p2541
aVtune
p2542
aVfor
p2543
aVpart
p2544
aV2
p2545
aVtoday
p2546
aVs
p2547
aVopen
p2548
aVcall
p2549
aVdraw
p2550
aVthousand
p2551
aVof
p2552
aVeager
p2553
aVapplicant
p2554
aVpron
p2555
aVbe
p2556
aVan
p2557
aVimpressive
p2558
aVgroup
p2559
aVpron
p2560
aVenjoy
p2561
aVmeet
p2562
aVpron
p2563
aVpron
p2564
aVhave
p2565
aVget
p2566
aVsome
p2567
aVgreat
p2568
aVcandidates
p2569
aVdo
p2570
aVnot
p2571
aVforget
p2572
aVthe
p2573
aVopen
p2574
aVcall
p2575
aVat
p2576
aVtrump
p2577
aVtower
p2578
aVtomorrow
p2579
aVfor
p2580
aVthe
p2581
aVapprentice
p2582
aVpron
p2583
aVlook
p2584
aVforward
p2585
aVto
p2586
aVsee
p2587
aVpron
p2588
aVthere
p2589
aVthe
p2590
aVnyc
p2591
aVcast
p2592
aVcall
p2593
aVfor
p2594
aVthe
p2595
aVapprentice
p2596
aVbe
p2597
aVthisthursday
p2598
aVapril
p2599
aV1
p2600
aVat
p2601
aVtrump
p2602
aVtower
p2603
aVfor
p2604
aVall
p2605
aVthe
p2606
aVinformation
p2607
aVpron
p2608
aVneed
p2609
aVgo
p2610
aVto
p2611
aVnbc
p2612
aVcom
p2613
aV
p2614
aVcasting
p2615
aVthe
p2616
aVoriginal
p2617
aVapprentice
p2618
aVbe
p2619
aVcome
p2620
aVback
p2621
aVdo
p2622
aVpron
p2623
aVhave
p2624
aVwhat
p2625
aVpron
p2626
aVtake
p2627
aVto
p2628
aVbe
p2629
aVthe
p2630
aVnext
p2631
aVapprentice
p2632
aVfor
p2633
aVcast
p2634
aVdetail
p2635
aVthe
p2636
aVtrump
p2637
aVhotel
p2638
aVcollection
p2639
aVbe
p2640
aVcurrently
p2641
aVnominate
p2642
aVfor
p2643
aVconde
p2644
aVnast
p2645
aVtraveler
p2646
aVreader
p2647
aVchoice
p2648
aVawards
p2649
aVtravel
p2650
aV
p2651
aVleisure
p2652
aVand
p2653
aVworld
p2654
aVtravel
p2655
aVawards
p2656
aVlast
p2657
aVweek
p2658
aVs
p2659
aVepisode
p2660
aVof
p2661
aVthe
p2662
aVcelebrity
p2663
aVapprentice
p2664
aVset
p2665
aVthe
p2666
aVstage
p2667
aVfor
p2668
aVa
p2669
aVgreat
p2670
aVnew
p2671
aVseason
p2672
aVtune
p2673
aVin
p2674
aVthis
p2675
aVsunday
p2676
aVon
p2677
aVnbc
p2678
aVfor
p2679
aVeven
p2680
aVmore
p2681
aVexcitement
p2682
aVpron
p2683
aVbe
p2684
aVhappy
p2685
aVto
p2686
aVannounce
p2687
aVthat
p2688
aVtheoriginal
p2689
aVapprentice
p2690
aVwill
p2691
aVoffer
p2692
aVjob
p2693
aVopportunity
p2694
aVto
p2695
aVthose
p2696
aVin
p2697
aVneed
p2698
aVbe
p2699
aVcome
p2700
aVback
p2701
aVolympic
p2702
aVgold
p2703
aVmedalist
p2704
aVevan
p2705
aVlysacek
p2706
aVjust
p2707
aVleave
p2708
aVpron
p2709
aVoffice
p2710
aVpron
p2711
aVbe
p2712
aVin
p2713
aVtown
p2714
aVand
p2715
aVwant
p2716
aVto
p2717
aVmeet
p2718
aVpron
p2719
aVpron
p2720
aVbe
p2721
aVa
p2722
aVfanastic
p2723
aVguy
p2724
aVand
p2725
aVa
p2726
aVtrue
p2727
aVchampion
p2728
aVthe
p2729
aVnew
p2730
aVseason
p2731
aVof
p2732
aVthe
p2733
aVcelebrity
p2734
aVapprentice
p2735
aVbe
p2736
aVoff
p2737
aVto
p2738
aVa
p2739
aVgreat
p2740
aVstart
p2741
aVlast
p2742
aVnight
p2743
aVpron
p2744
aVsweep
p2745
aVthe
p2746
aV10
p2747
aVp
p2748
aVm
p2749
aVhour
p2750
aVin
p2751
aVevery
p2752
aVkey
p2753
aVdemographic
p2754
aVthe
p2755
aVcelebrity
p2756
aVapprentice
p2757
aVhave
p2758
aVa
p2759
aVtwo
p2760
aV
p2761
aVhour
p2762
aVpremiere
p2763
aVthis
p2764
aVsunday
p2765
aVmarch
p2766
aV14th
p2767
aVat
p2768
aV9
p2769
aVp
p2770
aVm
p2771
aVon
p2772
aVnbc
p2773
aVthis
p2774
aVwill
p2775
aVbe
p2776
aVthe
p2777
aVgood
p2778
aVseason
p2779
aVyet
p2780
aVsee
p2781
aVpron
p2782
aVthen
p2783
aVfrom
p2784
aVdonald
p2785
aVtrump
p2786
aVandrea
p2787
aVbocelli
p2788
aV
p2789
aVmar
p2790
aV
p2791
aVa
p2792
aV
p2793
aVlago
p2794
aV
p2795
aVmany
p2796
aVsay
p2797
aVgood
p2798
aVnight
p2799
aVof
p2800
aVentertainment
p2801
aVin
p2802
aVlong
p2803
aVhistory
p2804
aVof
p2805
aVpalm
p2806
aVbeach
p2807
aVfrom
p2808
aVdonald
p2809
aVtrump
p2810
aVpron
p2811
aVbe
p2812
aVso
p2813
aVproud
p2814
aVof
p2815
aVpron
p2816
aVwife
p2817
aVmelania
p2818
aVand
p2819
aVthe
p2820
aVlaunch
p2821
aVof
p2822
aVpron
p2823
aVnew
p2824
aVjewelry
p2825
aVline
p2826
aVto
p2827
aVdebut
p2828
aVon
p2829
aVqvc
p2830
aVon
p2831
aVapril
p2832
aV30th
p2833
aVat
p2834
aV9
p2835
aVp
p2836
aVm
p2837
aVdonald
p2838
aVtrump
p2839
aVappear
p2840
aVon
p2841
aVthe
p2842
aVfinal
p2843
aVepisode
p2844
aVof
p2845
aVthe
p2846
aVjay
p2847
aVleno
p2848
aVshow
p2849
aVto
p2850
aVdeliver
p2851
aVa
p2852
aVvery
p2853
aVspecial
p2854
aVmessage
p2855
aVdonald
p2856
aVtrump
p2857
aVappear
p2858
aVtoday
p2859
aVon
p2860
aVcnn
p2861
aVinternational
p2862
aVs
p2863
aVconnect
p2864
aVthe
p2865
aVworld
p2866
aVas
p2867
aVconnector
p2868
aVof
p2869
aVthe
p2870
aVday
p2871
aVsubmit
p2872
aVquestion
p2873
aVsuperbowl
p2874
aVsunday
p2875
aVbe
p2876
aVa
p2877
aVgreat
p2878
aVamerican
p2879
aVtradition
p2880
aVthe
p2881
aVcolts
p2882
aVand
p2883
aVsaints
p2884
aVbe
p2885
aValready
p2886
aVchampion
p2887
aVbut
p2888
aVmay
p2889
aVthe
p2890
aVgood
p2891
aVteam
p2892
aVwin
p2893
aVgolf
p2894
aVchannel
p2895
aV
p2896
aVdonald
p2897
aVtrump
p2898
aVs
p2899
aVworld
p2900
aVof
p2901
aVgolf
p2902
aVhost
p2903
aVa
p2904
aVcelebrity
p2905
aVmatch
p2906
aV1/25
p2907
aV
p2908
aVtngc
p2909
aVla
p2910
aVca
p2911
aV
p2912
ag1183
aVwahlberg
p2913
aVvs
p2914
aVkevin
p2915
aVdillon
p2916
aVfrom
p2917
aVdonald
p2918
aVtrump
p2919
aVpron
p2920
aVsee
p2921
aVlady
p2922
aVgaga
p2923
aVlast
p2924
aVnight
p2925
aVand
p2926
aVpron
p2927
aVbe
p2928
aVfantastic
p2929
aVtrump
p2930
aVtycoon
p2931
aVapp
p2932
aVfor
p2933
aViphone
p2934
aV
p2935
aVipod
p2936
aVtouch
p2937
aVpron
p2938
aVbe
p2939
aV2
p2940
aV99
p2941
aVbut
p2942
aVthe
p2943
aVadvice
p2944
aVbe
p2945
aVpriceless
p2946
aV
p2947
aVcelebrity
p2948
aVapprentice
p2949
aVreturn
p2950
aVto
p2951
aVnbc
p2952
aVsunday
p2953
aV3/14
p2954
aV9
p2955
aV
p2956
aV11pm
p2957
aVet
p2958
aV
p2959
aVpt
p2960
aVoutstanding
p2961
aVlist
p2962
aVof
p2963
aVcelebrity
p2964
aV
p2965
aVseason
p2966
aVshould
p2967
aVbe
p2968
aVthe
p2969
aVgood
p2970
aVone
p2971
aVyet
p2972
aVfrom
p2973
aVdonald
p2974
aVtrump
p2975
aVwish
p2976
aVeveryone
p2977
aVa
p2978
aVwonderful
p2979
aVholiday
p2980
aV
p2981
aVa
p2982
aVhappy
p2983
aVhealthy
p2984
aVprosperous
p2985
aVnew
p2986
aVyear
p2987
aVlet
p2988
aVpron
p2989
aVthink
p2990
aVlike
p2991
aVchampion
p2992
aVin
p2993
aV2010
p2994
aa.