(lp0
(lp1
Vfrom
p2
aVdonald
p3
aVtrump
p4
aVwish
p5
aVeveryone
p6
aVa
p7
aVwonderful
p8
aVholiday
p9
aV
p10
aVa
p11
aVhappy
p12
aVhealthy
p13
aVprosperous
p14
aVnew
p15
aVyear
p16
aVlet
p17
aVpron
p18
aVthink
p19
aVlike
p20
aVchampion
p21
aVin
p22
aV2010
p23
aVtrump
p24
aVinternational
p25
aVtower
p26
aVin
p27
aVchicago
p28
aVrank
p29
aV6th
p30
aVtall
p31
aVbuilding
p32
aVin
p33
aVworld
p34
aVby
p35
aVcouncil
p36
aVon
p37
aVtall
p38
aVbuildings
p39
aV
p40
aVurban
p41
aVhabitat
p42
aVwish
p43
aVpron
p44
aVand
p45
aVyour
p46
aVa
p47
aVvery
p48
aVhappy
p49
aVand
p50
aVbountiful
p51
aVthanksgiving
p52
aVdonald
p53
aVtrump
p54
aVpartners
p55
aVwith
p56
aVtv1
p57
aVon
p58
aVnew
p59
aVreality
p60
aVseries
p61
aVentitled
p62
aVomarosa
p63
aVs
p64
aVultimate
p65
aVmerger
p66
aVwork
p67
aVhave
p68
aVbegin
p69
aVahead
p70
aVof
p71
aVschedule
p72
aVto
p73
aVbuild
p74
aVthe
p75
aVgreat
p76
aVgolf
p77
aVcourse
p78
aVin
p79
aVhistory
p80
aVtrump
p81
aVinternational
p82
aV
p83
aVscotland
p84
aV
p85
aVdonald
p86
aVtrump
p87
aVivanka
p88
aVand
p89
aVjared
p90
aVs
p91
aVwedding
p92
aVbe
p93
aVspectacular
p94
aVand
p95
aVpron
p96
aVmake
p97
aVa
p98
aVbeautiful
p99
aVcouple
p100
aVpron
p101
aVbe
p102
aVa
p103
aVvery
p104
aVproud
p105
aVfather
p106
aVhear
p107
aVdonald
p108
aVtrump
p109
aVdiscuss
p110
aVbig
p111
aVgov
p112
aVspending
p113
aVbank
p114
aV
p115
aVtax
p116
aVon
p117
aVpron
p118
aVworld
p119
aVw
p120
aV
p121
aVneil
p122
aVcavuto
p123
aVwatch
p124
aVvideo
p125
aVof
p126
aVivanka
p127
aVtrump
p128
aVsharing
p129
aVbusiness
p130
aVadvice
p131
aVwith
p132
aV4
p133
aVentrepreneurial
p134
aVwoman
p135
aVon
p136
aVgma
p137
aVread
p138
aVwhat
p139
aVdonald
p140
aVtrump
p141
aVhave
p142
aVto
p143
aVsay
p144
aVabout
p145
aVdaughter
p146
aVivanka
p147
aVs
p148
aVupcoming
p149
aVnew
p150
aVbook
p151
aVthe
p152
aVtrump
p153
aVcard
p154
aVa
p155
aVlot
p156
aVof
p157
aVpeople
p158
aVhave
p159
aVimagination
p160
aVbut
p161
aVcan
p162
aVnot
p163
aVexecute
p164
aVpron
p165
aVhave
p166
aVto
p167
aVexecute
p168
aVwith
p169
aVthe
p170
aVimagination
p171
aVj
p172
aVtrump
p173
aVread
p174
aVdonald
p175
aVtrump
p176
aVs
p177
aVtop
p178
aVten
p179
aVtips
p180
aVfor
p181
aVsuccess
p182
aVmore
p183
aVhysterical
p184
aVdsrl
p185
aVvideo
p186
aVfeature
p187
aVdonald
p188
aVtrump
p189
aVand
p190
aVdouble
p191
aVtrump
p192
aVplus
p193
aVenter
p194
aVgolden
p195
aVlick
p196
aVrace
p197
aVsweepstakes
p198
aV
p199
aVdonald
p200
aVtrump
p201
aVbid
p202
aVto
p203
aVbuy
p204
aVthe
p205
aVoreo
p206
aVdouble
p207
aVstuf
p208
aVracing
p209
aVleague
p210
aVcheck
p211
aVpron
p212
aVout
p213
aVreminder
p214
aVthe
p215
aVmiss
p216
aVuniverse
p217
aVcompetition
p218
aVwill
p219
aVbe
p220
aVlive
p221
aVfrom
p222
aVthe
p223
aVbahamas
p224
aV
p225
aVtonight
p226
aV
p227
aV9
p228
aVp.m
p229
aVest
p230
aVon
p231
aVnbc
p232
aVwatch
p233
aVthe
p234
aVmiss
p235
aVuniverse
p236
aVcompetition
p237
aVlive
p238
aVfrom
p239
aVthe
p240
aVbahamas
p241
aV
p242
aVsunday
p243
aV8/23
p244
aV
p245
aV9
p246
aVp.m
p247
aVet
p248
aVon
p249
aVnbc
p250
aVwatch
p251
aVdonald
p252
aVtrump
p253
aVs
p254
aVrecent
p255
aVappearance
p256
aVon
p257
aVthe
p258
aVlate
p259
aVshow
p260
aVwith
p261
aVdavid
p262
aVletterman
p263
aVivanka
p264
aVbe
p265
aVnow
p266
aVon
p267
aVtwitter
p268
aVpron
p269
aVcan
p270
aVfollow
p271
aVpron
p272
aVivankatrump
p273
aVhave
p274
aVa
p275
aVterrific
p276
aVweekend
p277
aVthink
p278
aVthat
p279
aV
p280
aVthe
p281
aVfirst
p282
aVstep
p283
aVuse
p284
aVall
p285
aVpron
p286
aVpower
p287
aVto
p288
aVutilize
p289
aVand
p290
aVdevelop
p291
aVthat
p292
aVcapability
p293
aVdonald
p294
aVj
p295
aVtrump
p296
aVbrowse
p297
aVdonald
p298
aVtrump
p299
aVs
p300
aVsummer
p301
aVreading
p302
aVlist
p303
aVfor
p304
aVbusiness
p305
aVsuccess
p306
aVat
p307
aVthe
p308
aVtrump
p309
aVuniversity
p310
aVblog
p311
aVcheck
p312
aVout
p313
aVa
p314
aVlist
p315
aVof
p316
aVdonald
p317
aVtrump
p318
aVs
p319
aVbook
p320
aVfor
p321
aVsummer
p322
aVreading
p323
aVat
p324
aVthe
p325
aVtrump
p326
aVuniversity
p327
aVblog
p328
aVcongrat
p329
aVto
p330
aVwinner
p331
aVfrom
p332
aVaround
p333
aVthe
p334
aVworld
p335
aVwho
p336
aVenter
p337
aVthe
p338
aVthink
p339
aVlike
p340
aVa
p341
aVchampion
p342
aVsign
p343
aVbook
p344
aV
p345
aVkeychain
p346
aVcontest
p347
aV
p348
aVdonald
p349
aVtrump
p350
aVback
p351
aVapprentice
p352
aV
p353
aVrandal
p354
aVpinkett
p355
aVfor
p356
aVn
p357
aVj
p358
aVlieutenant
p359
aVgovernor
p360
aVbe
p361
aVaware
p362
aVof
p363
aVthing
p364
aVthat
p365
aVseem
p366
aVinexplicable
p367
aVbecause
p368
aVpron
p369
aVcan
p370
aVbe
p371
aVa
p372
aVbig
p373
aVstep
p374
aVtowards
p375
aVinnovation
p376
aVj
p377
aVtrump
p378
aVhere
p379
aVbe
p380
aVto
p381
aVa
p382
aVsafe
p383
aVand
p384
aVhappy
p385
aVindependence
p386
aVday
p387
aVfor
p388
aVone
p389
aVand
p390
aVall
p391
aV
p392
aVenjoy
p393
aVpron
p394
aVdonald
p395
aVj
p396
aVtrump
p397
aVwatch
p398
aVa
p399
aVpowerful
p400
aVand
p401
aVfrank
p402
aVinterview
p403
aVwith
p404
aVdonald
p405
aVtrump
p406
aVabout
p407
aVthe
p408
aVeconomy
p409
aVon
p410
aVgreta
p411
aVvan
p412
aVsusteren
p413
aVs
p414
aVon
p415
aVthe
p416
aVrecord
p417
aVre
p418
aVmichael
p419
aVjackson
p420
aVpron
p421
aVbe
p422
aVa
p423
aVgreat
p424
aVfriend
p425
aVand
p426
aVa
p427
aVspectacular
p428
aVentertainer
p429
aVpron
p430
aV
p431
aVa
p432
aVdevastating
p433
aVloss
p434
aVdonald
p435
aVj
p436
aVtrump
p437
aVdonald
p438
aVtrump
p439
aVs
p440
aVcommercial
p441
aV
p442
aVfree
p443
aVwwe
p444
aVraw
p445
aVdo
p446
aVbig
p447
aVrating
p448
aVexpand
p449
aVpron
p450
aVlife
p451
aVevery
p452
aVday
p453
aVdonald
p454
aVj
p455
aVtrump
p456
aVwish
p457
aVa
p458
aVhappy
p459
aVfather
p460
aVs
p461
aVday
p462
aVto
p463
aVall
p464
aVthe
p465
aVdad
p466
aVs
p467
aVout
p468
aVthere
p469
aVyou
p470
aVbe
p471
aVa
p472
aVchampion
p473
aVtoday
p474
aVand
p475
aVeveryday
p476
aV
p477
aVre
p478
aVfb
p479
aVvanity
p480
aVurl
p481
aVsf
p482
aVchronicle
p483
aVdavid
p484
aVbeckham
p485
aVbe
p486
aVone
p487
aVof
p488
aVthe
p489
aVfirst
p490
aValong
p491
aVwith
p492
aVbritney
p493
aVspears
p494
aV
p495
aVdonald
p496
aVtrump
p497
aVthank
p498
aVto
p499
aVall
p500
aVfor
p501
aVpron
p502
aVthoughtful
p503
aVbirthday
p504
aVwish
p505
aV
p506
aVdonald
p507
aVtrump
p508
aVtoday
p509
aVbe
p510
aVdonald
p511
aVtrump
p512
aVs
p513
aVbirthday
p514
aVsend
p515
aVpron
p516
aVpron
p517
aVb'day
p518
aVwish
p519
aVhere
p520
aVlast
p521
aVweek
p522
aVto
p523
aVenter
p524
aVthe
p525
aVthink
p526
aVlike
p527
aVa
p528
aVchampion
p529
aVsign
p530
aVbook
p531
aVand
p532
aVkeychain
p533
aVcontest
p534
aVif
p535
aVpron
p536
aVdo
p537
aVnot
p538
aVhave
p539
aVproblem
p540
aVpron
p541
aVbe
p542
aVpretend
p543
aVor
p544
aVpron
p545
aVdo
p546
aVnot
p547
aVrun
p548
aVpron
p549
aVown
p550
aVbusiness
p551
aVdonald
p552
aVj
p553
aVtrump
p554
aV
p555
aVcheck
p556
aVout
p557
aVdonald
p558
aVtrump
p559
aVs
p560
aVnew
p561
aVigoogle
p562
aVshowcase
p563
aVpage
p564
aVpron
p565
aVhave
p566
aVto
p567
aVknow
p568
aVwhen
p569
aVto
p570
aVcall
p571
aVpron
p572
aVquit
p573
aVand
p574
aVwhen
p575
aVto
p576
aVkeep
p577
aVmove
p578
aVforward
p579
aVj
p580
aVtrump
p581
aVread
p582
aVan
p583
aVexcerpt
p584
aVfrom
p585
aVthink
p586
aVlike
p587
aVa
p588
aVchampion
p589
aVby
p590
aVdonald
p591
aVj
p592
aVtrump
p593
aVpron
p594
aVhigh
p595
aVself
p596
aVbe
p597
aVin
p598
aVdirect
p599
aVopposition
p600
aVto
p601
aVpron
p602
aVcomfort
p603
aVzone
p604
aVj
p605
aVtrump
p606
aVdo
p607
aVpron
p608
aVknow
p609
aVdonald
p610
aVtrump
p611
aVbe
p612
aVon
p613
aVfacebook
p614
aV
p615
aVbecome
p616
aVa
p617
aVfan
p618
aVtoday
p619
aVdo
p620
aVnot
p621
aVforget
p622
aVto
p623
aVenter
p624
aVthe
p625
aVthink
p626
aVlike
p627
aVa
p628
aVchampion
p629
aVsign
p630
aVbook
p631
aVand
p632
aVkeychain
p633
aVcontest
p634
aVkeep
p635
aVpron
p636
aVfast
p637
aVshort
p638
aVand
p639
aVdirect
p640
aVwhatev
p641
aVpron
p642
aVbe
p643
aVj
p644
aVtrump
p645
aVread
p646
aVa
p647
aVgreat
p648
aVinterview
p649
aVwith
p650
aVdonald
p651
aVtrump
p652
aVthat
p653
aVappear
p654
aVin
p655
aVthe
p656
aVnew
p657
aVyork
p658
aVtimes
p659
aVmagazine
p660
aValways
p661
aVknow
p662
aVpron
p663
aVcould
p664
aVbe
p665
aVon
p666
aVthe
p667
aVprecipice
p668
aVof
p669
aVsomething
p670
aVgreat
p671
aVj
p672
aVtrump
p673
aV
p674
aVthese
p675
aVday
p676
aVpron
p677
aVcould
p678
aVall
p679
aVuse
p680
aVa
p681
aVlittle
p682
aVof
p683
aVthe
p684
aVpower
p685
aVof
p686
aVtrumpative
p687
aVthinking
p688
aVbarnesandnoble
p689
aVcom
p690
aVpron
p691
aVwin
p692
aVin
p693
aVpron
p694
aVlife
p695
aVby
p696
aVhave
p697
aVa
p698
aVchampion
p699
aVs
p700
aVview
p701
aVof
p702
aVeach
p703
aVmoment
p704
aVj
p705
aVtrump
p706
aVdo
p707
aVnot
p708
aVbe
p709
aVafraid
p710
aVof
p711
aVbe
p712
aVunique
p713
aVpron
p714
aVbe
p715
aVlike
p716
aVbe
p717
aVafraid
p718
aVof
p719
aVpron
p720
aVgood
p721
aVself
p722
aVj
p723
aVtrump
p724
aVwhen
p725
aVthe
p726
aVachiever
p727
aVachieve
p728
aVpron
p729
aVbe
p730
aVnot
p731
aVa
p732
aVplateau
p733
aVpron
p734
aV
p735
aVa
p736
aVbeginning
p737
aVj
p738
aVtrump
p739
aVenter
p740
aVthe
p741
aVthink
p742
aVlike
p743
aVa
p744
aVchampion
p745
aVsign
p746
aVbook
p747
aVand
p748
aVkeychain
p749
aVcontest
p750
aVstrive
p751
aVfor
p752
aVwholeness
p753
aVand
p754
aVkeep
p755
aVpron
p756
aVsense
p757
aVof
p758
aVwonder
p759
aVintact
p760
aVj
p761
aVtrump
p762
aVlisten
p763
aVto
p764
aVan
p765
aVinterview
p766
aVwith
p767
aVdonald
p768
aVtrump
p769
aVdiscuss
p770
aVpron
p771
aVnew
p772
aVbook
p773
aVthink
p774
aVlike
p775
aVa
p776
aVchampion
p777
aVmiss
p778
aVusa
p779
aVtara
p780
aVconner
p781
aVwill
p782
aVnot
p783
aVbe
p784
aVfire
p785
aVpron
p786
aVhave
p787
aValways
p788
aVbe
p789
aVa
p790
aVbeliever
p791
aVin
p792
aVsecond
p793
aVchance
p794
aVsay
p795
aVdonald
p796
aVtrump
p797
aVpron
p798
aVpersona
p799
aVwill
p800
aVnever
p801
aVbe
p802
aVthat
p803
aVof
p804
aVa
p805
aVwallflower
p806
aVpron
p807
aVwould
p808
aVrather
p809
aVbuild
p810
aVwall
p811
aVthan
p812
aVcl
p813
aVto
p814
aVpron
p815
aVj
p816
aVtrump
p817
aVnew
p818
aVblog
p819
aVpost
p820
aVcelebrity
p821
aVapprentice
p822
aVfinale
p823
aVand
p824
aVlessons
p825
aVlearn
p826
aValong
p827
aVthe
p828
aVway
p829
aVdonald
p830
aVtrump
p831
aVread
p832
aVtop
p833
aVten
p834
aVfinancial
p835
aVtips
p836
aVon
p837
aVlate
p838
aVshow
p839
aVwith
p840
aVdavid
p841
aVletterman
p842
aV
p843
aV
p844
aVvery
p845
aVfunny
p846
aVdonald
p847
aVtrump
p848
aVwill
p849
aVbe
p850
aVappear
p851
aVon
p852
aVthe
p853
aVview
p854
aVtomorrow
p855
aVmorning
p856
aVto
p857
aVdiscuss
p858
aVcelebrity
p859
aVapprentice
p860
aVand
p861
aVpron
p862
aVnew
p863
aVbook
p864
aVthink
p865
aVlike
p866
aVa
p867
aVchampion
p868
aVbe
p869
aVsure
p870
aVto
p871
aVtune
p872
aVin
p873
aVand
p874
aVwatch
p875
aVdonald
p876
aVtrump
p877
aVon
p878
aVlate
p879
aVnight
p880
aVwith
p881
aVdavid
p882
aVletterman
p883
aVas
p884
aVpron
p885
aVpresent
p886
aVthe
p887
aVtop
p888
aVten
p889
aVlist
p890
aVtonight
p891
aa.